(iMln
Mln
p1
(dp2
S'node'
p3
(lp4
(ineuro_element
NeuroNode
p5
(dp6
S'df'
p7
cneuro_function
linear_prime
p8
sS'bios'
p9
F1
sS'z'
cnumpy.core.multiarray
_reconstruct
p10
(cnumpy
ndarray
p11
(I0
tS'b'
tRp12
(I1
(I2
I1
tcnumpy
dtype
p13
(S'f8'
I0
I1
tRp14
(I3
S'<'
NNNI-1
I-1
I0
tbI00
S'\x00\x00\x00\x00\x00\x00\xf0?\x00\x00\x00\x00\x00\x00\x00\x00'
tbsS'u'
g12
sS'f'
cneuro_function
linear
p15
sba(ineuro_element
NeuroNode
p16
(dp17
g7
cneuro_function
sigmoid_prime
p18
sg9
F1
sS'z'
g10
(g11
(I0
tS'b'
tRp19
(I1
(I3
I1
tg14
I00
S'\x9f,\x06b\xe4>\xee?\xc3i\x15\xf7bH\xef?(Jw\x89\xcb\xff\xef?'
tbsS'u'
g10
(g11
(I0
tS'b'
tRp20
(I1
(I3
I1
tg14
I00
S'\xc1\x84\xa2%4\xc7\x06@\xe3\xd8A:\x0b4\x0e@p\xdd>L!1%@'
tbsS'f'
cneuro_function
sigmoid
p21
sba(ineuro_element
NeuroNode
p22
(dp23
g7
cneuro_function
cost_sigmoid_binary_derivative
p24
sg9
F1
sS'z'
g10
(g11
(I0
tS'b'
tRp25
(I1
(I1
I1
tg14
I00
S'\xfctQ\xf73\xe2\xef?'
tbsS'u'
g10
(g11
(I0
tS'b'
tRp26
(I1
(I1
I1
tg14
I00
S'\xce\x94\x8c\xf1\x91s\x16@'
tbsS'f'
g21
sbasS'd'
(lp27
(lp28
cnumpy.core.multiarray
scalar
p29
(g14
S'\x00\x00\x00\x00\x00\x00\xf0?'
tRp30
aasS'weight'
p31
(lp32
(ineuro_element
NeuroWeight
p33
(dp34
S'b'
g10
(g11
(I0
tS'b'
tRp35
(I1
(I3
I1
tg14
I00
S'a.r\x0e\xf2\x8d\r\xc0\xd3\xb7d\x81wp\x1d@f\x01\x07\xac6\x97\x10@'
tbsS'w'
g10
(g11
(I0
tS'b'
tRp36
(I1
(I3
I2
tg14
I00
S"'lK)\xec*\x1a@Qp\xbcznt\x11\xc0jk\x8b\x17\x8e\xac\x0c\xc0~^\xc5\x91y\xb0\x11\xc0\x84\xbe\x9a2\xf4\xca\x19@\xb0\x95\xdf|\xd3v\x1e\xc0"
tbsba(ineuro_element
NeuroWeight
p37
(dp38
S'b'
g10
(g11
(I0
tS'b'
tRp39
(I1
(I1
I1
tg14
I00
S'\xe4}\x8ani\x13\xd7\xbf'
tbsS'w'
g10
(g11
(I0
tS'b'
tRp40
(I1
(I1
I3
tg14
I00
S"\x91O\x9c9\r\xf7'@\xa2\xfa\xe7\xf2K\xe5\x1a@\xbf\x92pI)\xd9'\xc0"
tbsbasS'eta'
p41
F0.14999999999999999
sS'neural_element'
p42
(lp43
sS'solved'
p44
S'fitting'
p45
sS'num_layer'
p46
I3
sS'name_of_element'
p47
(lp48
sb.